target datalayout = "e-m:e-p270:32:32-p271:32:32-p272:64:64-i64:64-i128:128-f80:128-n8:16:32:64-S128"
target triple = "x86_64-pc-linux-gnu"

%struct.EC_builtin_curve = type { i32, ptr }

@.str = private unnamed_addr constant [25 x i8] c"../openssl/test/ectest.c\00", align 1
@curves = internal global ptr null, align 8
@.str.430 = private unnamed_addr constant [40 x i8] c"group = EC_GROUP_new_by_curve_name(nid)\00", align 1
@.str.431 = private unnamed_addr constant [48 x i8] c"EC_GROUP_new_curve_name() failed with curve %s\0A\00", align 1
@.str.432 = private unnamed_addr constant [28 x i8] c"EC_GROUP_check(group, NULL)\00", align 1
@.str.433 = private unnamed_addr constant [39 x i8] c"EC_GROUP_check() failed with curve %s\0A\00", align 1

; Function Attrs: nounwind uwtable
define internal i32 @internal_curve_test(i32 noundef %0) #0 {
  %2 = alloca i32, align 4
  %3 = alloca i32, align 4
  %4 = alloca ptr, align 8
  %5 = alloca i32, align 4
  %6 = alloca i32, align 4
  store i32 %0, ptr %3, align 4, !tbaa !16
  call void @llvm.lifetime.start.p0(i64 8, ptr %4) #7
  store ptr null, ptr %4, align 8, !tbaa !10
  call void @llvm.lifetime.start.p0(i64 4, ptr %5) #7
  %7 = load ptr, ptr @curves, align 8, !tbaa !8
  %8 = load i32, ptr %3, align 4, !tbaa !16
  %9 = sext i32 %8 to i64
  %10 = getelementptr inbounds %struct.EC_builtin_curve, ptr %7, i64 %9
  %11 = getelementptr inbounds nuw %struct.EC_builtin_curve, ptr %10, i32 0, i32 0
  %12 = load i32, ptr %11, align 8, !tbaa !28
  store i32 %12, ptr %5, align 4, !tbaa !16
  %13 = load i32, ptr %5, align 4, !tbaa !16
  %14 = call ptr @EC_GROUP_new_by_curve_name(i32 noundef %13)
  store ptr %14, ptr %4, align 8, !tbaa !10
  %15 = call i32 @test_ptr(ptr noundef @.str, i32 noundef 1142, ptr noundef @.str.430, ptr noundef %14)
  %16 = icmp ne i32 %15, 0
  br i1 %16, label %20, label %17

17:                                               ; preds = %1
  %18 = load i32, ptr %5, align 4, !tbaa !16
  %19 = call ptr @OBJ_nid2sn(i32 noundef %18)
  call void (ptr, i32, ptr, ...) @test_info(ptr noundef @.str, i32 noundef 1144, ptr noundef @.str.431, ptr noundef %19)
  store i32 0, ptr %2, align 4
  store i32 1, ptr %6, align 4
  br label %33

20:                                               ; preds = %1
  %21 = load ptr, ptr %4, align 8, !tbaa !10
  %22 = call i32 @EC_GROUP_check(ptr noundef %21, ptr noundef null)
  %23 = icmp ne i32 %22, 0
  %24 = zext i1 %23 to i32
  %25 = call i32 @test_true(ptr noundef @.str, i32 noundef 1147, ptr noundef @.str.432, i32 noundef %24)
  %26 = icmp ne i32 %25, 0
  br i1 %26, label %31, label %27

27:                                               ; preds = %20
  %28 = load i32, ptr %5, align 4, !tbaa !16
  %29 = call ptr @OBJ_nid2sn(i32 noundef %28)
  call void (ptr, i32, ptr, ...) @test_info(ptr noundef @.str, i32 noundef 1148, ptr noundef @.str.433, ptr noundef %29)
  %30 = load ptr, ptr %4, align 8, !tbaa !10
  call void @EC_GROUP_free(ptr noundef %30)
  store i32 0, ptr %2, align 4
  store i32 1, ptr %6, align 4
  br label %33

31:                                               ; preds = %20
  %32 = load ptr, ptr %4, align 8, !tbaa !10
  call void @EC_GROUP_free(ptr noundef %32)
  store i32 1, ptr %2, align 4
  store i32 1, ptr %6, align 4
  br label %33

33:                                               ; preds = %31, %27, %17
  call void @llvm.lifetime.end.p0(i64 4, ptr %5) #7
  call void @llvm.lifetime.end.p0(i64 8, ptr %4) #7
  %34 = load i32, ptr %2, align 4
  ret i32 %34
}