; Function Attrs: nounwind uwtable
define internal range(i32 0, 2) i32 @internal_curve_test(i32 noundef %0) #0 {
  %2 = load ptr, ptr @curves, align 8, !tbaa !8
  %3 = sext i32 %0 to i64
  %4 = getelementptr inbounds %struct.EC_builtin_curve, ptr %2, i64 %3
  %5 = load i32, ptr %4, align 8, !tbaa !16
  %6 = tail call ptr @EC_GROUP_new_by_curve_name(i32 noundef %5) #7
  %7 = tail call i32 @test_ptr(ptr noundef nonnull @.str, i32 noundef 1142, ptr noundef nonnull @.str.430, ptr noundef %6) #7
  %.not = icmp eq i32 %7, 0
  br i1 %.not, label %8, label %10

8:                                                ; preds = %1
  %9 = tail call ptr @OBJ_nid2sn(i32 noundef %5) #7
  tail call void (ptr, i32, ptr, ...) @test_info(ptr noundef nonnull @.str, i32 noundef 1144, ptr noundef nonnull @.str.431, ptr noundef %9) #7
  br label %18

10:                                               ; preds = %1
  %11 = tail call i32 @EC_GROUP_check(ptr noundef %6, ptr noundef null) #7
  %12 = icmp ne i32 %11, 0
  %13 = zext i1 %12 to i32
  %14 = tail call i32 @test_true(ptr noundef nonnull @.str, i32 noundef 1147, ptr noundef nonnull @.str.432, i32 noundef %13) #7
  %.not7 = icmp eq i32 %14, 0
  br i1 %.not7, label %15, label %17

15:                                               ; preds = %10
  %16 = tail call ptr @OBJ_nid2sn(i32 noundef %5) #7
  tail call void (ptr, i32, ptr, ...) @test_info(ptr noundef nonnull @.str, i32 noundef 1148, ptr noundef nonnull @.str.433, ptr noundef %16) #7
  tail call void @EC_GROUP_free(ptr noundef %6) #7
  br label %18

17:                                               ; preds = %10
  tail call void @EC_GROUP_free(ptr noundef %6) #7
  br label %18

18:                                               ; preds = %17, %15, %8
  %.0 = phi i32 [ 1, %17 ], [ 0, %15 ], [ 0, %8 ]
  ret i32 %.0
}